target datalayout = "e-m:e-p270:32:32-p271:32:32-p272:64:64-i64:64-i128:128-f80:128-n8:16:32:64-S128"
target triple = "x86_64-unknown-linux-gnu"

%"class.cvc5::internal::String" = type { %"class.std::vector" }
%"class.std::vector" = type { %"struct.std::_Vector_base" }
%"struct.std::_Vector_base" = type { %"struct.std::_Vector_base<unsigned int, std::allocator<unsigned int>>::_Vector_impl" }
%"struct.std::_Vector_base<unsigned int, std::allocator<unsigned int>>::_Vector_impl" = type { %"struct.std::_Vector_base<unsigned int, std::allocator<unsigned int>>::_Vector_impl_data" }
%"struct.std::_Vector_base<unsigned int, std::allocator<unsigned int>>::_Vector_impl_data" = type { ptr, ptr, ptr }
%"class.__gnu_cxx::__normal_iterator.3" = type { ptr }

; Function Attrs: mustprogress nounwind uwtable
define linkonce_odr noundef zeroext i1 @_ZN9__gnu_cxxeqIPKjSt6vectorIjSaIjEEEEbRKNS_17__normal_iteratorIT_T0_EESB_(ptr noundef nonnull align 8 dereferenceable(8) %__lhs, ptr noundef nonnull align 8 dereferenceable(8) %__rhs) #5 comdat {
entry:
  %__lhs.addr = alloca ptr, align 8
  %__rhs.addr = alloca ptr, align 8
  store ptr %__lhs, ptr %__lhs.addr, align 8
  store ptr %__rhs, ptr %__rhs.addr, align 8
  %0 = load ptr, ptr %__lhs.addr, align 8
  %call = call noundef nonnull align 8 dereferenceable(8) ptr @_ZNK9__gnu_cxx17__normal_iteratorIPKjSt6vectorIjSaIjEEE4baseEv(ptr noundef nonnull align 8 dereferenceable(8) %0) #3
  %1 = load ptr, ptr %call, align 8
  %2 = load ptr, ptr %__rhs.addr, align 8
  %call1 = call noundef nonnull align 8 dereferenceable(8) ptr @_ZNK9__gnu_cxx17__normal_iteratorIPKjSt6vectorIjSaIjEEE4baseEv(ptr noundef nonnull align 8 dereferenceable(8) %2) #3
  %3 = load ptr, ptr %call1, align 8
  %cmp = icmp eq ptr %1, %3
  ret i1 %cmp
}

; Function Attrs: mustprogress nounwind uwtable
define linkonce_odr hidden noundef nonnull align 8 dereferenceable(8) ptr @_ZNK9__gnu_cxx17__normal_iteratorIPKjSt6vectorIjSaIjEEE4baseEv(ptr noundef nonnull align 8 dereferenceable(8) %this) #5 comdat align 2 {
entry:
  %this.addr = alloca ptr, align 8
  store ptr %this, ptr %this.addr, align 8
  %this1 = load ptr, ptr %this.addr, align 8
  %_M_current = getelementptr inbounds %"class.__gnu_cxx::__normal_iterator.3", ptr %this1, i32 0, i32 0
  ret ptr %_M_current
}

; Function Attrs: mustprogress nounwind uwtable
define linkonce_odr hidden void @_ZN9__gnu_cxx5__ops20__iter_equal_to_iterEv() #5 comdat {
entry:
  ret void
}

; Function Attrs: mustprogress nounwind uwtable
define linkonce_odr hidden void @_ZN9__gnu_cxx17__normal_iteratorIPKjSt6vectorIjSaIjEEEC2ERKS2_(ptr noundef nonnull align 8 dereferenceable(8) %this, ptr noundef nonnull align 8 dereferenceable(8) %__i) unnamed_addr #5 comdat align 2 {
entry:
  %this.addr = alloca ptr, align 8
  %__i.addr = alloca ptr, align 8
  store ptr %this, ptr %this.addr, align 8
  store ptr %__i, ptr %__i.addr, align 8
  %this1 = load ptr, ptr %this.addr, align 8
  %_M_current = getelementptr inbounds %"class.__gnu_cxx::__normal_iterator.3", ptr %this1, i32 0, i32 0
  %0 = load ptr, ptr %__i.addr, align 8
  %1 = load ptr, ptr %0, align 8
  store ptr %1, ptr %_M_current, align 8
  ret void
}

; Function Attrs: mustprogress nounwind uwtable
define linkonce_odr hidden noundef zeroext i1 @_ZNKSt6vectorIjSaIjEE5emptyEv(ptr noundef nonnull align 8 dereferenceable(24) %this) #5 comdat align 2 {
entry:
  %this.addr = alloca ptr, align 8
  %ref.tmp = alloca %"class.__gnu_cxx::__normal_iterator.3", align 8
  %ref.tmp2 = alloca %"class.__gnu_cxx::__normal_iterator.3", align 8
  store ptr %this, ptr %this.addr, align 8
  %this1 = load ptr, ptr %this.addr, align 8
  %call = call ptr @_ZNKSt6vectorIjSaIjEE5beginEv(ptr noundef nonnull align 8 dereferenceable(24) %this1) #3
  %coerce.dive = getelementptr inbounds %"class.__gnu_cxx::__normal_iterator.3", ptr %ref.tmp, i32 0, i32 0
  store ptr %call, ptr %coerce.dive, align 8
  %call3 = call ptr @_ZNKSt6vectorIjSaIjEE3endEv(ptr noundef nonnull align 8 dereferenceable(24) %this1) #3
  %coerce.dive4 = getelementptr inbounds %"class.__gnu_cxx::__normal_iterator.3", ptr %ref.tmp2, i32 0, i32 0
  store ptr %call3, ptr %coerce.dive4, align 8
  %call5 = call noundef zeroext i1 @_ZN9__gnu_cxxeqIPKjSt6vectorIjSaIjEEEEbRKNS_17__normal_iteratorIT_T0_EESB_(ptr noundef nonnull align 8 dereferenceable(8) %ref.tmp, ptr noundef nonnull align 8 dereferenceable(8) %ref.tmp2) #3
  ret i1 %call5
}

; Function Attrs: mustprogress nounwind uwtable
define linkonce_odr hidden noundef i64 @_ZNKSt6vectorIjSaIjEE4sizeEv(ptr noundef nonnull align 8 dereferenceable(24) %this) #5 comdat align 2 {
entry:
  %this.addr = alloca ptr, align 8
  store ptr %this, ptr %this.addr, align 8
  %this1 = load ptr, ptr %this.addr, align 8
  %_M_impl = getelementptr inbounds %"struct.std::_Vector_base", ptr %this1, i32 0, i32 0
  %_M_finish = getelementptr inbounds %"struct.std::_Vector_base<unsigned int, std::allocator<unsigned int>>::_Vector_impl_data", ptr %_M_impl, i32 0, i32 1
  %0 = load ptr, ptr %_M_finish, align 8
  %_M_impl2 = getelementptr inbounds %"struct.std::_Vector_base", ptr %this1, i32 0, i32 0
  %_M_start = getelementptr inbounds %"struct.std::_Vector_base<unsigned int, std::allocator<unsigned int>>::_Vector_impl_data", ptr %_M_impl2, i32 0, i32 0
  %1 = load ptr, ptr %_M_start, align 8
  %sub.ptr.lhs.cast = ptrtoint ptr %0 to i64
  %sub.ptr.rhs.cast = ptrtoint ptr %1 to i64
  %sub.ptr.sub = sub i64 %sub.ptr.lhs.cast, %sub.ptr.rhs.cast
  %sub.ptr.div = sdiv exact i64 %sub.ptr.sub, 4
  ret i64 %sub.ptr.div
}

; Function Attrs: mustprogress nounwind uwtable
define linkonce_odr noundef i64 @_ZN9__gnu_cxxmiIPKjSt6vectorIjSaIjEEEENS_17__normal_iteratorIT_T0_E15difference_typeERKS9_SC_(ptr noundef nonnull align 8 dereferenceable(8) %__lhs, ptr noundef nonnull align 8 dereferenceable(8) %__rhs) #5 comdat {
entry:
  %__lhs.addr = alloca ptr, align 8
  %__rhs.addr = alloca ptr, align 8
  store ptr %__lhs, ptr %__lhs.addr, align 8
  store ptr %__rhs, ptr %__rhs.addr, align 8
  %0 = load ptr, ptr %__lhs.addr, align 8
  %call = call noundef nonnull align 8 dereferenceable(8) ptr @_ZNK9__gnu_cxx17__normal_iteratorIPKjSt6vectorIjSaIjEEE4baseEv(ptr noundef nonnull align 8 dereferenceable(8) %0) #3
  %1 = load ptr, ptr %call, align 8
  %2 = load ptr, ptr %__rhs.addr, align 8
  %call1 = call noundef nonnull align 8 dereferenceable(8) ptr @_ZNK9__gnu_cxx17__normal_iteratorIPKjSt6vectorIjSaIjEEE4baseEv(ptr noundef nonnull align 8 dereferenceable(8) %2) #3
  %3 = load ptr, ptr %call1, align 8
  %sub.ptr.lhs.cast = ptrtoint ptr %1 to i64
  %sub.ptr.rhs.cast = ptrtoint ptr %3 to i64
  %sub.ptr.sub = sub i64 %sub.ptr.lhs.cast, %sub.ptr.rhs.cast
  %sub.ptr.div = sdiv exact i64 %sub.ptr.sub, 4
  ret i64 %sub.ptr.div
}

; Function Attrs: mustprogress nounwind uwtable
define linkonce_odr noundef zeroext i1 @_ZN9__gnu_cxxneIPKjSt6vectorIjSaIjEEEEbRKNS_17__normal_iteratorIT_T0_EESB_(ptr noundef nonnull align 8 dereferenceable(8) %__lhs, ptr noundef nonnull align 8 dereferenceable(8) %__rhs) #5 comdat {
entry:
  %__lhs.addr = alloca ptr, align 8
  %__rhs.addr = alloca ptr, align 8
  store ptr %__lhs, ptr %__lhs.addr, align 8
  store ptr %__rhs, ptr %__rhs.addr, align 8
  %0 = load ptr, ptr %__lhs.addr, align 8
  %call = call noundef nonnull align 8 dereferenceable(8) ptr @_ZNK9__gnu_cxx17__normal_iteratorIPKjSt6vectorIjSaIjEEE4baseEv(ptr noundef nonnull align 8 dereferenceable(8) %0) #3
  %1 = load ptr, ptr %call, align 8
  %2 = load ptr, ptr %__rhs.addr, align 8
  %call1 = call noundef nonnull align 8 dereferenceable(8) ptr @_ZNK9__gnu_cxx17__normal_iteratorIPKjSt6vectorIjSaIjEEE4baseEv(ptr noundef nonnull align 8 dereferenceable(8) %2) #3
  %3 = load ptr, ptr %call1, align 8
  %cmp = icmp ne ptr %1, %3
  ret i1 %cmp
}

; Function Attrs: mustprogress uwtable
define linkonce_odr ptr @_ZSt6searchIN9__gnu_cxx17__normal_iteratorIPKjSt6vectorIjSaIjEEEES7_ET_S8_S8_T0_S9_(ptr %__first1.coerce, ptr %__last1.coerce, ptr %__first2.coerce, ptr %__last2.coerce) #4 comdat {
entry:
  %retval = alloca %"class.__gnu_cxx::__normal_iterator.3", align 8
  %__first1 = alloca %"class.__gnu_cxx::__normal_iterator.3", align 8
  %__last1 = alloca %"class.__gnu_cxx::__normal_iterator.3", align 8
  %__first2 = alloca %"class.__gnu_cxx::__normal_iterator.3", align 8
  %__last2 = alloca %"class.__gnu_cxx::__normal_iterator.3", align 8
  %agg.tmp = alloca %"class.__gnu_cxx::__normal_iterator.3", align 8
  %agg.tmp4 = alloca %"class.__gnu_cxx::__normal_iterator.3", align 8
  %agg.tmp5 = alloca %"class.__gnu_cxx::__normal_iterator.3", align 8
  %agg.tmp6 = alloca %"class.__gnu_cxx::__normal_iterator.3", align 8
  %coerce.dive = getelementptr inbounds %"class.__gnu_cxx::__normal_iterator.3", ptr %__first1, i32 0, i32 0
  store ptr %__first1.coerce, ptr %coerce.dive, align 8
  %coerce.dive1 = getelementptr inbounds %"class.__gnu_cxx::__normal_iterator.3", ptr %__last1, i32 0, i32 0
  store ptr %__last1.coerce, ptr %coerce.dive1, align 8
  %coerce.dive2 = getelementptr inbounds %"class.__gnu_cxx::__normal_iterator.3", ptr %__first2, i32 0, i32 0
  store ptr %__first2.coerce, ptr %coerce.dive2, align 8
  %coerce.dive3 = getelementptr inbounds %"class.__gnu_cxx::__normal_iterator.3", ptr %__last2, i32 0, i32 0
  store ptr %__last2.coerce, ptr %coerce.dive3, align 8
  call void @llvm.memcpy.p0.p0.i64(ptr align 8 %agg.tmp, ptr align 8 %__first1, i64 8, i1 false)
  call void @llvm.memcpy.p0.p0.i64(ptr align 8 %agg.tmp4, ptr align 8 %__last1, i64 8, i1 false)
  call void @llvm.memcpy.p0.p0.i64(ptr align 8 %agg.tmp5, ptr align 8 %__first2, i64 8, i1 false)
  call void @llvm.memcpy.p0.p0.i64(ptr align 8 %agg.tmp6, ptr align 8 %__last2, i64 8, i1 false)
  call void @_ZN9__gnu_cxx5__ops20__iter_equal_to_iterEv()
  %coerce.dive8 = getelementptr inbounds %"class.__gnu_cxx::__normal_iterator.3", ptr %agg.tmp, i32 0, i32 0
  %0 = load ptr, ptr %coerce.dive8, align 8
  %coerce.dive9 = getelementptr inbounds %"class.__gnu_cxx::__normal_iterator.3", ptr %agg.tmp4, i32 0, i32 0
  %1 = load ptr, ptr %coerce.dive9, align 8
  %coerce.dive10 = getelementptr inbounds %"class.__gnu_cxx::__normal_iterator.3", ptr %agg.tmp5, i32 0, i32 0
  %2 = load ptr, ptr %coerce.dive10, align 8
  %coerce.dive11 = getelementptr inbounds %"class.__gnu_cxx::__normal_iterator.3", ptr %agg.tmp6, i32 0, i32 0
  %3 = load ptr, ptr %coerce.dive11, align 8
  %call = call ptr @_ZSt8__searchIN9__gnu_cxx17__normal_iteratorIPKjSt6vectorIjSaIjEEEES7_NS0_5__ops19_Iter_equal_to_iterEET_SA_SA_T0_SB_T1_(ptr %0, ptr %1, ptr %2, ptr %3)
  %coerce.dive12 = getelementptr inbounds %"class.__gnu_cxx::__normal_iterator.3", ptr %retval, i32 0, i32 0
  store ptr %call, ptr %coerce.dive12, align 8
  %coerce.dive13 = getelementptr inbounds %"class.__gnu_cxx::__normal_iterator.3", ptr %retval, i32 0, i32 0
  %4 = load ptr, ptr %coerce.dive13, align 8
  ret ptr %4
}

; Function Attrs: mustprogress nounwind uwtable
define linkonce_odr hidden ptr @_ZNKSt6vectorIjSaIjEE3endEv(ptr noundef nonnull align 8 dereferenceable(24) %this) #5 comdat align 2 {
entry:
  %retval = alloca %"class.__gnu_cxx::__normal_iterator.3", align 8
  %this.addr = alloca ptr, align 8
  store ptr %this, ptr %this.addr, align 8
  %this1 = load ptr, ptr %this.addr, align 8
  %_M_impl = getelementptr inbounds %"struct.std::_Vector_base", ptr %this1, i32 0, i32 0
  %_M_finish = getelementptr inbounds %"struct.std::_Vector_base<unsigned int, std::allocator<unsigned int>>::_Vector_impl_data", ptr %_M_impl, i32 0, i32 1
  call void @_ZN9__gnu_cxx17__normal_iteratorIPKjSt6vectorIjSaIjEEEC2ERKS2_(ptr noundef nonnull align 8 dereferenceable(8) %retval, ptr noundef nonnull align 8 dereferenceable(8) %_M_finish) #3
  %coerce.dive = getelementptr inbounds %"class.__gnu_cxx::__normal_iterator.3", ptr %retval, i32 0, i32 0
  %0 = load ptr, ptr %coerce.dive, align 8
  ret ptr %0
}

; Function Attrs: mustprogress nounwind uwtable
define linkonce_odr hidden ptr @_ZNK9__gnu_cxx17__normal_iteratorIPKjSt6vectorIjSaIjEEEplEl(ptr noundef nonnull align 8 dereferenceable(8) %this, i64 noundef %__n) #5 comdat align 2 {
entry:
  %retval = alloca %"class.__gnu_cxx::__normal_iterator.3", align 8
  %this.addr = alloca ptr, align 8
  %__n.addr = alloca i64, align 8
  %ref.tmp = alloca ptr, align 8
  store ptr %this, ptr %this.addr, align 8
  store i64 %__n, ptr %__n.addr, align 8
  %this1 = load ptr, ptr %this.addr, align 8
  %_M_current = getelementptr inbounds %"class.__gnu_cxx::__normal_iterator.3", ptr %this1, i32 0, i32 0
  %0 = load ptr, ptr %_M_current, align 8
  %1 = load i64, ptr %__n.addr, align 8
  %add.ptr = getelementptr inbounds i32, ptr %0, i64 %1
  store ptr %add.ptr, ptr %ref.tmp, align 8
  call void @_ZN9__gnu_cxx17__normal_iteratorIPKjSt6vectorIjSaIjEEEC2ERKS2_(ptr noundef nonnull align 8 dereferenceable(8) %retval, ptr noundef nonnull align 8 dereferenceable(8) %ref.tmp) #3
  %coerce.dive = getelementptr inbounds %"class.__gnu_cxx::__normal_iterator.3", ptr %retval, i32 0, i32 0
  %2 = load ptr, ptr %coerce.dive, align 8
  ret ptr %2
}

; Function Attrs: mustprogress nounwind uwtable
define linkonce_odr hidden ptr @_ZNKSt6vectorIjSaIjEE5beginEv(ptr noundef nonnull align 8 dereferenceable(24) %this) #5 comdat align 2 {
entry:
  %retval = alloca %"class.__gnu_cxx::__normal_iterator.3", align 8
  %this.addr = alloca ptr, align 8
  store ptr %this, ptr %this.addr, align 8
  %this1 = load ptr, ptr %this.addr, align 8
  %_M_impl = getelementptr inbounds %"struct.std::_Vector_base", ptr %this1, i32 0, i32 0
  %_M_start = getelementptr inbounds %"struct.std::_Vector_base<unsigned int, std::allocator<unsigned int>>::_Vector_impl_data", ptr %_M_impl, i32 0, i32 0
  call void @_ZN9__gnu_cxx17__normal_iteratorIPKjSt6vectorIjSaIjEEEC2ERKS2_(ptr noundef nonnull align 8 dereferenceable(8) %retval, ptr noundef nonnull align 8 dereferenceable(8) %_M_start) #3
  %coerce.dive = getelementptr inbounds %"class.__gnu_cxx::__normal_iterator.3", ptr %retval, i32 0, i32 0
  %0 = load ptr, ptr %coerce.dive, align 8
  ret ptr %0
}

; Function Attrs: mustprogress nounwind uwtable
define linkonce_odr hidden noundef zeroext i1 @_ZNK4cvc58internal6String5emptyEv(ptr noundef nonnull align 8 dereferenceable(24) %this) #5 comdat align 2 {
entry:
  %this.addr = alloca ptr, align 8
  store ptr %this, ptr %this.addr, align 8
  %this1 = load ptr, ptr %this.addr, align 8
  %d_str = getelementptr inbounds %"class.cvc5::internal::String", ptr %this1, i32 0, i32 0
  %call = call noundef zeroext i1 @_ZNKSt6vectorIjSaIjEE5emptyEv(ptr noundef nonnull align 8 dereferenceable(24) %d_str) #3
  ret i1 %call
}

; Function Attrs: mustprogress nounwind uwtable
define linkonce_odr hidden noundef i64 @_ZNK4cvc58internal6String4sizeEv(ptr noundef nonnull align 8 dereferenceable(24) %this) #5 comdat align 2 {
entry:
  %this.addr = alloca ptr, align 8
  store ptr %this, ptr %this.addr, align 8
  %this1 = load ptr, ptr %this.addr, align 8
  %d_str = getelementptr inbounds %"class.cvc5::internal::String", ptr %this1, i32 0, i32 0
  %call = call noundef i64 @_ZNKSt6vectorIjSaIjEE4sizeEv(ptr noundef nonnull align 8 dereferenceable(24) %d_str) #3
  ret i64 %call
}

; Function Attrs: mustprogress uwtable
define hidden noundef i64 @_ZNK4cvc58internal6String4findERKS1_m(ptr noundef nonnull align 8 dereferenceable(24) %this, ptr noundef nonnull align 8 dereferenceable(24) %y, i64 noundef %start) #4 align 2 {
entry:
  %retval = alloca i64, align 8
  %this.addr = alloca ptr, align 8
  %y.addr = alloca ptr, align 8
  %start.addr = alloca i64, align 8
  %itr = alloca %"class.__gnu_cxx::__normal_iterator.3", align 8
  %agg.tmp = alloca %"class.__gnu_cxx::__normal_iterator.3", align 8
  %ref.tmp = alloca %"class.__gnu_cxx::__normal_iterator.3", align 8
  %agg.tmp12 = alloca %"class.__gnu_cxx::__normal_iterator.3", align 8
  %agg.tmp16 = alloca %"class.__gnu_cxx::__normal_iterator.3", align 8
  %agg.tmp20 = alloca %"class.__gnu_cxx::__normal_iterator.3", align 8
  %ref.tmp30 = alloca %"class.__gnu_cxx::__normal_iterator.3", align 8
  %ref.tmp36 = alloca %"class.__gnu_cxx::__normal_iterator.3", align 8
  store ptr %this, ptr %this.addr, align 8
  store ptr %y, ptr %y.addr, align 8
  store i64 %start, ptr %start.addr, align 8
  %this1 = load ptr, ptr %this.addr, align 8
  %call = call noundef i64 @_ZNK4cvc58internal6String4sizeEv(ptr noundef nonnull align 8 dereferenceable(24) %this1)
  %0 = load ptr, ptr %y.addr, align 8
  %call2 = call noundef i64 @_ZNK4cvc58internal6String4sizeEv(ptr noundef nonnull align 8 dereferenceable(24) %0)
  %1 = load i64, ptr %start.addr, align 8
  %add = add i64 %call2, %1
  %cmp = icmp ult i64 %call, %add
  br i1 %cmp, label %if.then, label %if.end

if.then:                                          ; preds = %entry
  store i64 -1, ptr %retval, align 8
  br label %return

if.end:                                           ; preds = %entry
  %2 = load ptr, ptr %y.addr, align 8
  %call3 = call noundef zeroext i1 @_ZNK4cvc58internal6String5emptyEv(ptr noundef nonnull align 8 dereferenceable(24) %2)
  br i1 %call3, label %if.then4, label %if.end5

if.then4:                                         ; preds = %if.end
  %3 = load i64, ptr %start.addr, align 8
  store i64 %3, ptr %retval, align 8
  br label %return

if.end5:                                          ; preds = %if.end
  %call6 = call noundef zeroext i1 @_ZNK4cvc58internal6String5emptyEv(ptr noundef nonnull align 8 dereferenceable(24) %this1)
  br i1 %call6, label %if.then7, label %if.end8

if.then7:                                         ; preds = %if.end5
  store i64 -1, ptr %retval, align 8
  br label %return

if.end8:                                          ; preds = %if.end5
  %d_str = getelementptr inbounds %"class.cvc5::internal::String", ptr %this1, i32 0, i32 0
  %call9 = call ptr @_ZNKSt6vectorIjSaIjEE5beginEv(ptr noundef nonnull align 8 dereferenceable(24) %d_str) #3
  %coerce.dive = getelementptr inbounds %"class.__gnu_cxx::__normal_iterator.3", ptr %ref.tmp, i32 0, i32 0
  store ptr %call9, ptr %coerce.dive, align 8
  %4 = load i64, ptr %start.addr, align 8
  %call10 = call ptr @_ZNK9__gnu_cxx17__normal_iteratorIPKjSt6vectorIjSaIjEEEplEl(ptr noundef nonnull align 8 dereferenceable(8) %ref.tmp, i64 noundef %4) #3
  %coerce.dive11 = getelementptr inbounds %"class.__gnu_cxx::__normal_iterator.3", ptr %agg.tmp, i32 0, i32 0
  store ptr %call10, ptr %coerce.dive11, align 8
  %d_str13 = getelementptr inbounds %"class.cvc5::internal::String", ptr %this1, i32 0, i32 0
  %call14 = call ptr @_ZNKSt6vectorIjSaIjEE3endEv(ptr noundef nonnull align 8 dereferenceable(24) %d_str13) #3
  %coerce.dive15 = getelementptr inbounds %"class.__gnu_cxx::__normal_iterator.3", ptr %agg.tmp12, i32 0, i32 0
  store ptr %call14, ptr %coerce.dive15, align 8
  %5 = load ptr, ptr %y.addr, align 8
  %d_str17 = getelementptr inbounds %"class.cvc5::internal::String", ptr %5, i32 0, i32 0
  %call18 = call ptr @_ZNKSt6vectorIjSaIjEE5beginEv(ptr noundef nonnull align 8 dereferenceable(24) %d_str17) #3
  %coerce.dive19 = getelementptr inbounds %"class.__gnu_cxx::__normal_iterator.3", ptr %agg.tmp16, i32 0, i32 0
  store ptr %call18, ptr %coerce.dive19, align 8
  %6 = load ptr, ptr %y.addr, align 8
  %d_str21 = getelementptr inbounds %"class.cvc5::internal::String", ptr %6, i32 0, i32 0
  %call22 = call ptr @_ZNKSt6vectorIjSaIjEE3endEv(ptr noundef nonnull align 8 dereferenceable(24) %d_str21) #3
  %coerce.dive23 = getelementptr inbounds %"class.__gnu_cxx::__normal_iterator.3", ptr %agg.tmp20, i32 0, i32 0
  store ptr %call22, ptr %coerce.dive23, align 8
  %coerce.dive24 = getelementptr inbounds %"class.__gnu_cxx::__normal_iterator.3", ptr %agg.tmp, i32 0, i32 0
  %7 = load ptr, ptr %coerce.dive24, align 8
  %coerce.dive25 = getelementptr inbounds %"class.__gnu_cxx::__normal_iterator.3", ptr %agg.tmp12, i32 0, i32 0
  %8 = load ptr, ptr %coerce.dive25, align 8
  %coerce.dive26 = getelementptr inbounds %"class.__gnu_cxx::__normal_iterator.3", ptr %agg.tmp16, i32 0, i32 0
  %9 = load ptr, ptr %coerce.dive26, align 8
  %coerce.dive27 = getelementptr inbounds %"class.__gnu_cxx::__normal_iterator.3", ptr %agg.tmp20, i32 0, i32 0
  %10 = load ptr, ptr %coerce.dive27, align 8
  %call28 = call ptr @_ZSt6searchIN9__gnu_cxx17__normal_iteratorIPKjSt6vectorIjSaIjEEEES7_ET_S8_S8_T0_S9_(ptr %7, ptr %8, ptr %9, ptr %10)
  %coerce.dive29 = getelementptr inbounds %"class.__gnu_cxx::__normal_iterator.3", ptr %itr, i32 0, i32 0
  store ptr %call28, ptr %coerce.dive29, align 8
  %d_str31 = getelementptr inbounds %"class.cvc5::internal::String", ptr %this1, i32 0, i32 0
  %call32 = call ptr @_ZNKSt6vectorIjSaIjEE3endEv(ptr noundef nonnull align 8 dereferenceable(24) %d_str31) #3
  %coerce.dive33 = getelementptr inbounds %"class.__gnu_cxx::__normal_iterator.3", ptr %ref.tmp30, i32 0, i32 0
  store ptr %call32, ptr %coerce.dive33, align 8
  %call34 = call noundef zeroext i1 @_ZN9__gnu_cxxneIPKjSt6vectorIjSaIjEEEEbRKNS_17__normal_iteratorIT_T0_EESB_(ptr noundef nonnull align 8 dereferenceable(8) %itr, ptr noundef nonnull align 8 dereferenceable(8) %ref.tmp30) #3
  br i1 %call34, label %if.then35, label %if.end41

if.then35:                                        ; preds = %if.end8
  %d_str37 = getelementptr inbounds %"class.cvc5::internal::String", ptr %this1, i32 0, i32 0
  %call38 = call ptr @_ZNKSt6vectorIjSaIjEE5beginEv(ptr noundef nonnull align 8 dereferenceable(24) %d_str37) #3
  %coerce.dive39 = getelementptr inbounds %"class.__gnu_cxx::__normal_iterator.3", ptr %ref.tmp36, i32 0, i32 0
  store ptr %call38, ptr %coerce.dive39, align 8
  %call40 = call noundef i64 @_ZN9__gnu_cxxmiIPKjSt6vectorIjSaIjEEEENS_17__normal_iteratorIT_T0_E15difference_typeERKS9_SC_(ptr noundef nonnull align 8 dereferenceable(8) %itr, ptr noundef nonnull align 8 dereferenceable(8) %ref.tmp36) #3
  store i64 %call40, ptr %retval, align 8
  br label %return

if.end41:                                         ; preds = %if.end8
  store i64 -1, ptr %retval, align 8
  br label %return

return:                                           ; preds = %if.end41, %if.then35, %if.then7, %if.then4, %if.then
  %11 = load i64, ptr %retval, align 8
  ret i64 %11
}