; Function Attrs: mustprogress uwtable
define hidden noundef i64 @_ZNK4cvc58internal6String4findERKS1_m(ptr nocapture noundef nonnull readonly align 8 dereferenceable(24) %this, ptr nocapture noundef nonnull readonly align 8 dereferenceable(24) %y, i64 noundef %start) local_unnamed_addr #3 align 2 {
entry:
  %_M_finish.i.i = getelementptr inbounds i8, ptr %this, i64 8
  %0 = load ptr, ptr %_M_finish.i.i, align 8
  %1 = load ptr, ptr %this, align 8
  %sub.ptr.lhs.cast.i.i = ptrtoint ptr %0 to i64
  %sub.ptr.rhs.cast.i.i = ptrtoint ptr %1 to i64
  %sub.ptr.sub.i.i = sub i64 %sub.ptr.lhs.cast.i.i, %sub.ptr.rhs.cast.i.i
  %sub.ptr.div.i.i = ashr exact i64 %sub.ptr.sub.i.i, 2
  %_M_finish.i.i6 = getelementptr inbounds i8, ptr %y, i64 8
  %2 = load ptr, ptr %_M_finish.i.i6, align 8
  %3 = load ptr, ptr %y, align 8
  %sub.ptr.lhs.cast.i.i7 = ptrtoint ptr %2 to i64
  %sub.ptr.rhs.cast.i.i8 = ptrtoint ptr %3 to i64
  %sub.ptr.sub.i.i9 = sub i64 %sub.ptr.lhs.cast.i.i7, %sub.ptr.rhs.cast.i.i8
  %sub.ptr.div.i.i10 = ashr exact i64 %sub.ptr.sub.i.i9, 2
  %add = add i64 %sub.ptr.div.i.i10, %start
  %cmp = icmp ult i64 %sub.ptr.div.i.i, %add
  br i1 %cmp, label %return, label %if.end

if.end:                                           ; preds = %entry
  %cmp.i.i.i = icmp eq ptr %3, %2
  br i1 %cmp.i.i.i, label %return, label %if.end5

if.end5:                                          ; preds = %if.end
  %cmp.i.i.i12 = icmp eq ptr %1, %0
  br i1 %cmp.i.i.i12, label %return, label %if.end8

if.end8:                                          ; preds = %if.end5
  %add.ptr.i = getelementptr inbounds i32, ptr %1, i64 %start
  %call.i = tail call ptr @_ZSt8__searchIN9__gnu_cxx17__normal_iteratorIPKjSt6vectorIjSaIjEEEES7_NS0_5__ops19_Iter_equal_to_iterEET_SA_SA_T0_SB_T1_(ptr %add.ptr.i, ptr %0, ptr %3, ptr %2)
  %4 = load ptr, ptr %_M_finish.i.i, align 8
  %cmp.i.not = icmp eq ptr %call.i, %4
  br i1 %cmp.i.not, label %return, label %if.then35

if.then35:                                        ; preds = %if.end8
  %5 = load ptr, ptr %this, align 8
  %sub.ptr.lhs.cast.i = ptrtoint ptr %call.i to i64
  %sub.ptr.rhs.cast.i = ptrtoint ptr %5 to i64
  %sub.ptr.sub.i = sub i64 %sub.ptr.lhs.cast.i, %sub.ptr.rhs.cast.i
  %sub.ptr.div.i = ashr exact i64 %sub.ptr.sub.i, 2
  br label %return

return:                                           ; preds = %if.end8, %if.end5, %if.end, %entry, %if.then35
  %retval.0 = phi i64 [ %sub.ptr.div.i, %if.then35 ], [ -1, %entry ], [ %start, %if.end ], [ -1, %if.end5 ], [ -1, %if.end8 ]
  ret i64 %retval.0
}